target datalayout = "e-m:e-p270:32:32-p271:32:32-p272:64:64-i64:64-i128:128-f80:128-n8:16:32:64-S128"
target triple = "x86_64-pc-linux-gnu"

%"class.icu_77::UMutex" = type { [40 x i8], %"struct.std::atomic", ptr }
%"struct.std::atomic" = type { %"struct.std::__atomic_base" }
%"struct.std::__atomic_base" = type { ptr }
%"class.icu_77::Mutex" = type { ptr }

@_ZL13registryMutex = internal global %"class.icu_77::UMutex" zeroinitializer, align 8
@_ZL8registry = internal global ptr null, align 8

; Function Attrs: mustprogress nounwind uwtable
define linkonce_odr void @_ZN6icu_775MutexD2Ev(ptr noundef nonnull align 8 dereferenceable(8) %0) unnamed_addr #0 comdat align 2 personality ptr @__gxx_personality_v0 {
  %2 = alloca ptr, align 8
  store ptr %0, ptr %2, align 8, !tbaa !133
  %3 = load ptr, ptr %2, align 8
  %4 = getelementptr inbounds nuw %"class.icu_77::Mutex", ptr %3, i32 0, i32 0
  %5 = load ptr, ptr %4, align 8, !tbaa !137
  invoke void @umtx_unlock_77(ptr noundef %5)
          to label %6 unwind label %7

6:                                                ; preds = %1
  ret void

7:                                                ; preds = %1
  %8 = landingpad { ptr, i32 }
          catch ptr null
  %9 = extractvalue { ptr, i32 } %8, 0
  call void @__clang_call_terminate(ptr %9) #17
  unreachable
}

; Function Attrs: mustprogress uwtable
define noundef i32 @_ZN6icu_7714Transliterator22_countAvailableTargetsERKNS_13UnicodeStringE(ptr noundef nonnull align 8 dereferenceable(64) %0) #1 align 2 {
  %2 = alloca ptr, align 8
  store ptr %0, ptr %2, align 8, !tbaa !25
  %3 = load ptr, ptr @_ZL8registry, align 8, !tbaa !86
  %4 = load ptr, ptr %2, align 8, !tbaa !25
  %5 = call noundef i32 @_ZNK6icu_7722TransliteratorRegistry21countAvailableTargetsERKNS_13UnicodeStringE(ptr noundef nonnull align 8 dereferenceable(312) %3, ptr noundef nonnull align 8 dereferenceable(64) %4)
  ret i32 %5
}

; Function Attrs: mustprogress uwtable
define linkonce_odr void @_ZN6icu_775MutexC2EPNS_6UMutexE(ptr noundef nonnull align 8 dereferenceable(8) %0, ptr noundef %1) unnamed_addr #1 comdat align 2 {
  %3 = alloca ptr, align 8
  %4 = alloca ptr, align 8
  store ptr %0, ptr %3, align 8, !tbaa !133
  store ptr %1, ptr %4, align 8, !tbaa !135
  %5 = load ptr, ptr %3, align 8
  %6 = getelementptr inbounds nuw %"class.icu_77::Mutex", ptr %5, i32 0, i32 0
  %7 = load ptr, ptr %4, align 8, !tbaa !135
  store ptr %7, ptr %6, align 8, !tbaa !137
  %8 = getelementptr inbounds nuw %"class.icu_77::Mutex", ptr %5, i32 0, i32 0
  %9 = load ptr, ptr %8, align 8, !tbaa !137
  call void @umtx_lock_77(ptr noundef %9)
  ret void
}

; Function Attrs: mustprogress uwtable
define noundef i32 @_ZN6icu_7714Transliterator21countAvailableTargetsERKNS_13UnicodeStringE(ptr noundef nonnull align 8 dereferenceable(64) %0) #1 align 2 personality ptr @__gxx_personality_v0 {
  %2 = alloca ptr, align 8
  %3 = alloca %"class.icu_77::Mutex", align 8
  %4 = alloca i32, align 4
  %5 = alloca ptr, align 8
  %6 = alloca i32, align 4
  store ptr %0, ptr %2, align 8, !tbaa !25
  call void @llvm.lifetime.start.p0(i64 8, ptr %3) #15
  call void @_ZN6icu_775MutexC2EPNS_6UMutexE(ptr noundef nonnull align 8 dereferenceable(8) %3, ptr noundef @_ZL13registryMutex)
  call void @llvm.lifetime.start.p0(i64 4, ptr %4) #15
  store i32 0, ptr %4, align 4, !tbaa !15
  %7 = load ptr, ptr @_ZL8registry, align 8, !tbaa !86
  %8 = icmp ne ptr %7, null
  br i1 %8, label %13, label %9

9:                                                ; preds = %1
  %10 = invoke noundef signext i8 @_ZN6icu_7714Transliterator18initializeRegistryER10UErrorCode(ptr noundef nonnull align 4 dereferenceable(4) %4)
          to label %11 unwind label %20

11:                                               ; preds = %9
  %12 = icmp ne i8 %10, 0
  br i1 %12, label %13, label %17

13:                                               ; preds = %11, %1
  %14 = load ptr, ptr %2, align 8, !tbaa !25
  %15 = invoke noundef i32 @_ZN6icu_7714Transliterator22_countAvailableTargetsERKNS_13UnicodeStringE(ptr noundef nonnull align 8 dereferenceable(64) %14)
          to label %16 unwind label %20

16:                                               ; preds = %13
  br label %18

17:                                               ; preds = %11
  br label %18

18:                                               ; preds = %17, %16
  %19 = phi i32 [ %15, %16 ], [ 0, %17 ]
  call void @llvm.lifetime.end.p0(i64 4, ptr %4) #15
  call void @_ZN6icu_775MutexD2Ev(ptr noundef nonnull align 8 dereferenceable(8) %3) #15
  call void @llvm.lifetime.end.p0(i64 8, ptr %3) #15
  ret i32 %19

20:                                               ; preds = %13, %9
  %21 = landingpad { ptr, i32 }
          cleanup
  %22 = extractvalue { ptr, i32 } %21, 0
  store ptr %22, ptr %5, align 8
  %23 = extractvalue { ptr, i32 } %21, 1
  store i32 %23, ptr %6, align 4
  call void @llvm.lifetime.end.p0(i64 4, ptr %4) #15
  call void @_ZN6icu_775MutexD2Ev(ptr noundef nonnull align 8 dereferenceable(8) %3) #15
  call void @llvm.lifetime.end.p0(i64 8, ptr %3) #15
  br label %24

24:                                               ; preds = %20
  %25 = load ptr, ptr %5, align 8
  %26 = load i32, ptr %6, align 4
  %27 = insertvalue { ptr, i32 } poison, ptr %25, 0
  %28 = insertvalue { ptr, i32 } %27, i32 %26, 1
  resume { ptr, i32 } %28
}