; Function Attrs: mustprogress uwtable
define noundef i32 @_ZN6icu_7714Transliterator21countAvailableTargetsERKNS_13UnicodeStringE(ptr noundef nonnull align 8 dereferenceable(64) %0) local_unnamed_addr #1 align 2 personality ptr @__gxx_personality_v0 {
  %2 = alloca i32, align 4
  tail call void @umtx_lock_77(ptr noundef nonnull @_ZL13registryMutex)
  call void @llvm.lifetime.start.p0(i64 4, ptr nonnull %2) #21
  store i32 0, ptr %2, align 4, !tbaa !13
  %3 = load ptr, ptr @_ZL8registry, align 8, !tbaa !49
  %.not = icmp eq ptr %3, null
  br i1 %.not, label %4, label %7

4:                                                ; preds = %1
  %5 = invoke noundef signext i8 @_ZN6icu_7714Transliterator18initializeRegistryER10UErrorCode(ptr noundef nonnull align 4 dereferenceable(4) %2)
          to label %6 unwind label %14

6:                                                ; preds = %4
  %.not2 = icmp eq i8 %5, 0
  br i1 %.not2, label %_ZN6icu_7714Transliterator22_countAvailableTargetsERKNS_13UnicodeStringE.exit, label %._crit_edge

._crit_edge:                                      ; preds = %6
  %.pre = load ptr, ptr @_ZL8registry, align 8, !tbaa !49
  br label %7

7:                                                ; preds = %._crit_edge, %1
  %8 = phi ptr [ %.pre, %._crit_edge ], [ %3, %1 ]
  %9 = invoke noundef i32 @_ZNK6icu_7722TransliteratorRegistry21countAvailableTargetsERKNS_13UnicodeStringE(ptr noundef nonnull align 8 dereferenceable(312) %8, ptr noundef nonnull align 8 dereferenceable(64) %0)
          to label %_ZN6icu_7714Transliterator22_countAvailableTargetsERKNS_13UnicodeStringE.exit unwind label %14

_ZN6icu_7714Transliterator22_countAvailableTargetsERKNS_13UnicodeStringE.exit: ; preds = %7, %6
  %10 = phi i32 [ 0, %6 ], [ %9, %7 ]
  call void @llvm.lifetime.end.p0(i64 4, ptr nonnull %2) #21
  invoke void @umtx_unlock_77(ptr noundef nonnull @_ZL13registryMutex)
          to label %_ZN6icu_775MutexD2Ev.exit unwind label %11

11:                                               ; preds = %_ZN6icu_7714Transliterator22_countAvailableTargetsERKNS_13UnicodeStringE.exit
  %12 = landingpad { ptr, i32 }
          catch ptr null
  %13 = extractvalue { ptr, i32 } %12, 0
  call void @__clang_call_terminate(ptr %13) #23
  unreachable

_ZN6icu_775MutexD2Ev.exit:                        ; preds = %_ZN6icu_7714Transliterator22_countAvailableTargetsERKNS_13UnicodeStringE.exit
  ret i32 %10

14:                                               ; preds = %7, %4
  %15 = landingpad { ptr, i32 }
          cleanup
  call void @llvm.lifetime.end.p0(i64 4, ptr nonnull %2) #21
  invoke void @umtx_unlock_77(ptr noundef nonnull @_ZL13registryMutex)
          to label %_ZN6icu_775MutexD2Ev.exit3 unwind label %16

16:                                               ; preds = %14
  %17 = landingpad { ptr, i32 }
          catch ptr null
  %18 = extractvalue { ptr, i32 } %17, 0
  call void @__clang_call_terminate(ptr %18) #23
  unreachable

_ZN6icu_775MutexD2Ev.exit3:                       ; preds = %14
  resume { ptr, i32 } %15
}